Certificate:
    Data:
        Version: 3 (0x2)
        Serial Number: 4096 (0x1000)
    Signature Algorithm: sha256WithRSAEncryption
        Issuer: C=US, ST=South Carolina, L=Spartanburg, O=USC Upstate, OU=U445, CN=Josh/emailAddress=mttblue2@gmail.com
        Validity
            Not Before: Apr  3 18:55:01 2019 GMT
            Not After : Apr  2 18:55:01 2020 GMT
        Subject: C=US, ST=South Caronlina, L=Spartanburg, O=PKILAB, OU=LAB, CN=PKILAB.COM/emailAddress=PKILAB@PKILAB.COM
        Subject Public Key Info:
            Public Key Algorithm: rsaEncryption
                Public-Key: (1024 bit)
                Modulus:
                    00:d0:cb:50:1e:b7:71:ca:3e:b5:a4:df:03:8f:6f:
                    db:e3:ea:fa:9a:71:02:95:08:10:3f:e1:af:6c:0c:
                    66:d6:72:32:66:0c:b6:f4:bd:00:d0:01:e8:21:4c:
                    bb:c1:53:8d:4c:97:32:e9:42:21:c2:3a:55:6d:36:
                    c8:c1:e8:f0:6b:4b:0d:ab:cc:fb:dd:c3:1e:59:8d:
                    fb:9e:fd:97:14:be:09:2a:9f:6e:b6:13:da:a6:88:
                    0f:85:a2:45:84:c4:5b:f2:46:a4:7e:89:64:c4:3f:
                    2b:b4:7c:28:1b:29:4b:ad:11:fc:de:37:72:94:3c:
                    48:76:80:31:7a:5e:e6:54:33
                Exponent: 65537 (0x10001)
        X509v3 extensions:
            X509v3 Basic Constraints: 
                CA:FALSE
            Netscape Comment: 
                OpenSSL Generated Certificate
            X509v3 Subject Key Identifier: 
                69:21:E7:DE:99:FA:13:77:B2:DA:A3:BA:EC:76:40:32:0C:4F:31:5A
            X509v3 Authority Key Identifier: 
                keyid:B2:9F:BA:BD:C6:BD:D1:E0:D9:9E:F0:B9:0A:D4:3A:BA:CF:C3:B6:2D

    Signature Algorithm: sha256WithRSAEncryption
         06:e4:1b:8b:73:e5:d4:e9:a9:79:7e:27:d0:2d:f9:c6:ee:a3:
         78:f9:e2:a0:1c:2e:67:45:f7:71:31:6b:b3:a0:f4:40:10:27:
         0b:ec:88:01:c1:32:1f:3e:5e:85:51:36:69:67:bc:20:43:3e:
         5c:b6:8d:5d:36:e6:bc:fd:31:6d:a6:08:36:64:4f:58:10:af:
         88:bb:e7:9c:9f:40:e9:92:39:18:bc:b4:8f:e1:b0:bb:fc:35:
         77:91:e2:63:24:36:d6:9b:53:73:79:56:b1:53:a5:63:46:90:
         a4:65:40:c7:35:f2:e4:25:0b:70:c1:78:f9:3e:40:5f:f8:1b:
         2b:72:4e:5d:2d:dc:f9:66:63:82:fc:81:55:ca:6a:74:70:eb:
         18:d5:0c:8f:93:01:c3:24:60:6b:eb:d8:3e:3d:28:41:11:d5:
         5a:51:b9:ce:16:f5:d5:5d:7a:2a:24:de:32:a0:08:9c:15:eb:
         37:aa:c9:84:3b:ea:54:86:bd:0e:35:2d:cf:76:89:7c:8c:a3:
         1d:a6:ea:b5:0c:74:98:1c:0a:6e:f2:20:7b:52:98:01:80:34:
         1c:8e:ae:9c:dd:02:a6:8e:d4:60:eb:66:d1:a3:0c:e0:ff:36:
         31:fb:99:0d:55:17:94:9e:70:aa:38:ae:43:87:0c:00:bb:39:
         df:a2:bc:27
-----BEGIN CERTIFICATE-----
MIIDmzCCAoOgAwIBAgICEAAwDQYJKoZIhvcNAQELBQAwgZMxCzAJBgNVBAYTAlVT
MRcwFQYDVQQIDA5Tb3V0aCBDYXJvbGluYTEUMBIGA1UEBwwLU3BhcnRhbmJ1cmcx
FDASBgNVBAoMC1VTQyBVcHN0YXRlMQ0wCwYDVQQLDARVNDQ1MQ0wCwYDVQQDDARK
b3NoMSEwHwYJKoZIhvcNAQkBFhJtdHRibHVlMkBnbWFpbC5jb20wHhcNMTkwNDAz
MTg1NTAxWhcNMjAwNDAyMTg1NTAxWjCBkzELMAkGA1UEBhMCVVMxGDAWBgNVBAgM
D1NvdXRoIENhcm9ubGluYTEUMBIGA1UEBwwLU3BhcnRhbmJ1cmcxDzANBgNVBAoM
BlBLSUxBQjEMMAoGA1UECwwDTEFCMRMwEQYDVQQDDApQS0lMQUIuQ09NMSAwHgYJ
KoZIhvcNAQkBFhFQS0lMQUJAUEtJTEFCLkNPTTCBnzANBgkqhkiG9w0BAQEFAAOB
jQAwgYkCgYEA0MtQHrdxyj61pN8Dj2/b4+r6mnEClQgQP+GvbAxm1nIyZgy29L0A
0AHoIUy7wVONTJcy6UIhwjpVbTbIwejwa0sNq8z73cMeWY37nv2XFL4JKp9uthPa
pogPhaJFhMRb8kakfolkxD8rtHwoGylLrRH83jdylDxIdoAxel7mVDMCAwEAAaN7
MHkwCQYDVR0TBAIwADAsBglghkgBhvhCAQ0EHxYdT3BlblNTTCBHZW5lcmF0ZWQg
Q2VydGlmaWNhdGUwHQYDVR0OBBYEFGkh596Z+hN3stqjuux2QDIMTzFaMB8GA1Ud
IwQYMBaAFLKfur3GvdHg2Z7wuQrUOrrPw7YtMA0GCSqGSIb3DQEBCwUAA4IBAQAG
5BuLc+XU6al5fifQLfnG7qN4+eKgHC5nRfdxMWuzoPRAECcL7IgBwTIfPl6FUTZp
Z7wgQz5cto1dNua8/TFtpgg2ZE9YEK+Iu+ecn0DpkjkYvLSP4bC7/DV3keJjJDbW
m1NzeVaxU6VjRpCkZUDHNfLkJQtwwXj5PkBf+Bsrck5dLdz5ZmOC/IFVymp0cOsY
1QyPkwHDJGBr69g+PShBEdVaUbnOFvXVXXoqJN4yoAicFes3qsmEO+pUhr0ONS3P
dol8jKMdpuq1DHSYHApu8iB7UpgBgDQcjq6c3QKmjtRg62bRowzg/zYx+5kNVReU
nnCqOK5DhwwAuznforwn
-----END CERTIFICATE-----
